target datalayout = "e-m:e-p270:32:32-p271:32:32-p272:64:64-i64:64-i128:128-f80:128-n8:16:32:64-S128"
target triple = "x86_64-pc-linux-gnu"

@.str.17 = private unnamed_addr constant [27 x i8] c"too many results to unpack\00", align 1

; Function Attrs: nounwind uwtable
define internal i32 @tunpack(ptr noundef %0) #0 {
  %2 = alloca i32, align 4
  %3 = alloca ptr, align 8
  %4 = alloca i64, align 8
  %5 = alloca i64, align 8
  %6 = alloca i64, align 8
  %7 = alloca i32, align 4
  store ptr %0, ptr %3, align 8, !tbaa !4
  call void @llvm.lifetime.start.p0(i64 8, ptr %4) #4
  call void @llvm.lifetime.start.p0(i64 8, ptr %5) #4
  %8 = load ptr, ptr %3, align 8, !tbaa !4
  %9 = call i64 @luaL_optinteger(ptr noundef %8, i32 noundef 2, i64 noundef 1)
  store i64 %9, ptr %5, align 8, !tbaa !9
  call void @llvm.lifetime.start.p0(i64 8, ptr %6) #4
  %10 = load ptr, ptr %3, align 8, !tbaa !4
  %11 = call i32 @lua_type(ptr noundef %10, i32 noundef 3)
  %12 = icmp sle i32 %11, 0
  br i1 %12, label %13, label %16

13:                                               ; preds = %1
  %14 = load ptr, ptr %3, align 8, !tbaa !4
  %15 = call i64 @luaL_len(ptr noundef %14, i32 noundef 1)
  br label %19

16:                                               ; preds = %1
  %17 = load ptr, ptr %3, align 8, !tbaa !4
  %18 = call i64 @luaL_checkinteger(ptr noundef %17, i32 noundef 3)
  br label %19

19:                                               ; preds = %16, %13
  %20 = phi i64 [ %15, %13 ], [ %18, %16 ]
  store i64 %20, ptr %6, align 8, !tbaa !9
  %21 = load i64, ptr %5, align 8, !tbaa !9
  %22 = load i64, ptr %6, align 8, !tbaa !9
  %23 = icmp sgt i64 %21, %22
  br i1 %23, label %24, label %25

24:                                               ; preds = %19
  store i32 0, ptr %2, align 4
  store i32 1, ptr %7, align 4
  br label %68

25:                                               ; preds = %19
  %26 = load i64, ptr %6, align 8, !tbaa !9
  %27 = load i64, ptr %5, align 8, !tbaa !9
  %28 = sub i64 %26, %27
  store i64 %28, ptr %4, align 8, !tbaa !9
  %29 = load i64, ptr %4, align 8, !tbaa !9
  %30 = icmp uge i64 %29, 2147483647
  br i1 %30, label %39, label %31

31:                                               ; preds = %25
  %32 = load ptr, ptr %3, align 8, !tbaa !4
  %33 = load i64, ptr %4, align 8, !tbaa !9
  %34 = add i64 %33, 1
  store i64 %34, ptr %4, align 8, !tbaa !9
  %35 = trunc i64 %34 to i32
  %36 = call i32 @lua_checkstack(ptr noundef %32, i32 noundef %35)
  %37 = icmp ne i32 %36, 0
  %38 = xor i1 %37, true
  br label %39

39:                                               ; preds = %31, %25
  %40 = phi i1 [ true, %25 ], [ %38, %31 ]
  %41 = zext i1 %40 to i32
  %42 = icmp ne i32 %41, 0
  %43 = zext i1 %42 to i32
  %44 = sext i32 %43 to i64
  %45 = call i64 @llvm.expect.i64(i64 %44, i64 0)
  %46 = icmp ne i64 %45, 0
  br i1 %46, label %47, label %50

47:                                               ; preds = %39
  %48 = load ptr, ptr %3, align 8, !tbaa !4
  %49 = call i32 (ptr, ptr, ...) @luaL_error(ptr noundef %48, ptr noundef @.str.17)
  store i32 %49, ptr %2, align 4
  store i32 1, ptr %7, align 4
  br label %68

50:                                               ; preds = %39
  br label %51

51:                                               ; preds = %59, %50
  %52 = load i64, ptr %5, align 8, !tbaa !9
  %53 = load i64, ptr %6, align 8, !tbaa !9
  %54 = icmp slt i64 %52, %53
  br i1 %54, label %55, label %62

55:                                               ; preds = %51
  %56 = load ptr, ptr %3, align 8, !tbaa !4
  %57 = load i64, ptr %5, align 8, !tbaa !9
  %58 = call i32 @lua_geti(ptr noundef %56, i32 noundef 1, i64 noundef %57)
  br label %59

59:                                               ; preds = %55
  %60 = load i64, ptr %5, align 8, !tbaa !9
  %61 = add nsw i64 %60, 1
  store i64 %61, ptr %5, align 8, !tbaa !9
  br label %51

62:                                               ; preds = %51
  %63 = load ptr, ptr %3, align 8, !tbaa !4
  %64 = load i64, ptr %6, align 8, !tbaa !9
  %65 = call i32 @lua_geti(ptr noundef %63, i32 noundef 1, i64 noundef %64)
  %66 = load i64, ptr %4, align 8, !tbaa !9
  %67 = trunc i64 %66 to i32
  store i32 %67, ptr %2, align 4
  store i32 1, ptr %7, align 4
  br label %68

68:                                               ; preds = %62, %47, %24
  call void @llvm.lifetime.end.p0(i64 8, ptr %6) #4
  call void @llvm.lifetime.end.p0(i64 8, ptr %5) #4
  call void @llvm.lifetime.end.p0(i64 8, ptr %4) #4
  %69 = load i32, ptr %2, align 4
  ret i32 %69
}