; Function Attrs: nounwind uwtable
define internal i32 @tunpack(ptr noundef %0) #0 {
  %2 = tail call i64 @luaL_optinteger(ptr noundef %0, i32 noundef 2, i64 noundef 1) #3
  %3 = tail call i32 @lua_type(ptr noundef %0, i32 noundef 3) #3
  %4 = icmp slt i32 %3, 1
  br i1 %4, label %5, label %7

5:                                                ; preds = %1
  %6 = tail call i64 @luaL_len(ptr noundef %0, i32 noundef 1) #3
  br label %9

7:                                                ; preds = %1
  %8 = tail call i64 @luaL_checkinteger(ptr noundef %0, i32 noundef 3) #3
  br label %9

9:                                                ; preds = %7, %5
  %10 = phi i64 [ %6, %5 ], [ %8, %7 ]
  %11 = icmp sgt i64 %2, %10
  br i1 %11, label %24, label %12

12:                                               ; preds = %9
  %13 = sub i64 %10, %2
  %14 = icmp ugt i64 %13, 2147483646
  br i1 %14, label %.thread, label %15, !prof !10

15:                                               ; preds = %12
  %16 = trunc nuw i64 %13 to i32
  %17 = add nuw nsw i32 %16, 1
  %18 = tail call i32 @lua_checkstack(ptr noundef %0, i32 noundef %17) #3
  %.not = icmp eq i32 %18, 0
  br i1 %.not, label %.thread, label %.preheader, !prof !11

.preheader:                                       ; preds = %15
  %19 = icmp slt i64 %2, %10
  br i1 %19, label %.lr.ph, label %._crit_edge

.thread:                                          ; preds = %12, %15
  %20 = tail call i32 (ptr, ptr, ...) @luaL_error(ptr noundef %0, ptr noundef nonnull @.str.17) #3
  br label %24

.lr.ph:                                           ; preds = %.preheader, %.lr.ph
  %.02026 = phi i64 [ %22, %.lr.ph ], [ %2, %.preheader ]
  %21 = tail call i32 @lua_geti(ptr noundef %0, i32 noundef 1, i64 noundef %.02026) #3
  %22 = add i64 %.02026, 1
  %exitcond.not = icmp eq i64 %22, %10
  br i1 %exitcond.not, label %._crit_edge, label %.lr.ph

._crit_edge:                                      ; preds = %.lr.ph, %.preheader
  %23 = tail call i32 @lua_geti(ptr noundef %0, i32 noundef 1, i64 noundef %10) #3
  br label %24

24:                                               ; preds = %9, %._crit_edge, %.thread
  %.0 = phi i32 [ %20, %.thread ], [ %17, %._crit_edge ], [ 0, %9 ]
  ret i32 %.0
}